target datalayout = "e-m:e-p270:32:32-p271:32:32-p272:64:64-i64:64-i128:128-f80:128-n8:16:32:64-S128"
target triple = "x86_64-pc-linux-gnu"

; Function Attrs: mustprogress uwtable
define linkonce_odr hidden noundef i64 @_ZNK6casadi6MXNode3nnzEx(ptr noundef nonnull align 8 dereferenceable(64) %0, i64 noundef %1) #4 comdat align 2 {
  %3 = alloca ptr, align 8
  %4 = alloca i64, align 8
  store ptr %0, ptr %3, align 8, !tbaa !59
  store i64 %1, ptr %4, align 8, !tbaa !39
  %5 = load ptr, ptr %3, align 8
  %6 = load i64, ptr %4, align 8, !tbaa !39
  %7 = load ptr, ptr %5, align 8, !tbaa !12
  %8 = getelementptr inbounds ptr, ptr %7, i64 49
  %9 = load ptr, ptr %8, align 8
  %10 = call noundef nonnull align 8 dereferenceable(8) ptr %9(ptr noundef nonnull align 8 dereferenceable(64) %5, i64 noundef %6)
  %11 = call noundef i64 @_ZNK6casadi8Sparsity3nnzEv(ptr noundef nonnull align 8 dereferenceable(8) %10)
  ret i64 %11
}

; Function Attrs: mustprogress uwtable
define noundef i32 @_ZNK6casadi7Monitor10sp_reverseEPPyS2_PxS1_(ptr noundef nonnull align 8 dereferenceable(96) %0, ptr noundef %1, ptr noundef %2, ptr noundef %3, ptr noundef %4) unnamed_addr #4 align 2 {
  %6 = alloca ptr, align 8
  %7 = alloca ptr, align 8
  %8 = alloca ptr, align 8
  %9 = alloca ptr, align 8
  %10 = alloca ptr, align 8
  %11 = alloca ptr, align 8
  %12 = alloca ptr, align 8
  %13 = alloca i64, align 8
  %14 = alloca i64, align 8
  store ptr %0, ptr %6, align 8, !tbaa !3
  store ptr %1, ptr %7, align 8, !tbaa !69
  store ptr %2, ptr %8, align 8, !tbaa !69
  store ptr %3, ptr %9, align 8, !tbaa !55
  store ptr %4, ptr %10, align 8, !tbaa !55
  %15 = load ptr, ptr %6, align 8
  call void @llvm.lifetime.start.p0(i64 8, ptr %11) #3
  %16 = load ptr, ptr %7, align 8, !tbaa !69
  %17 = getelementptr inbounds ptr, ptr %16, i64 0
  %18 = load ptr, ptr %17, align 8, !tbaa !55
  store ptr %18, ptr %11, align 8, !tbaa !55
  call void @llvm.lifetime.start.p0(i64 8, ptr %12) #3
  %19 = load ptr, ptr %8, align 8, !tbaa !69
  %20 = getelementptr inbounds ptr, ptr %19, i64 0
  %21 = load ptr, ptr %20, align 8, !tbaa !55
  store ptr %21, ptr %12, align 8, !tbaa !55
  call void @llvm.lifetime.start.p0(i64 8, ptr %13) #3
  %22 = call noundef i64 @_ZNK6casadi6MXNode3nnzEx(ptr noundef nonnull align 8 dereferenceable(64) %15, i64 noundef 0)
  store i64 %22, ptr %13, align 8, !tbaa !39
  %23 = load ptr, ptr %11, align 8, !tbaa !55
  %24 = load ptr, ptr %12, align 8, !tbaa !55
  %25 = icmp ne ptr %23, %24
  br i1 %25, label %26, label %45

26:                                               ; preds = %5
  call void @llvm.lifetime.start.p0(i64 8, ptr %14) #3
  store i64 0, ptr %14, align 8, !tbaa !39
  br label %27

27:                                               ; preds = %41, %26
  %28 = load i64, ptr %14, align 8, !tbaa !39
  %29 = load i64, ptr %13, align 8, !tbaa !39
  %30 = icmp slt i64 %28, %29
  br i1 %30, label %32, label %31

31:                                               ; preds = %27
  call void @llvm.lifetime.end.p0(i64 8, ptr %14) #3
  br label %44

32:                                               ; preds = %27
  %33 = load ptr, ptr %12, align 8, !tbaa !55
  %34 = load i64, ptr %33, align 8, !tbaa !39
  %35 = load ptr, ptr %11, align 8, !tbaa !55
  %36 = getelementptr inbounds nuw i64, ptr %35, i32 1
  store ptr %36, ptr %11, align 8, !tbaa !55
  %37 = load i64, ptr %35, align 8, !tbaa !39
  %38 = or i64 %37, %34
  store i64 %38, ptr %35, align 8, !tbaa !39
  %39 = load ptr, ptr %12, align 8, !tbaa !55
  %40 = getelementptr inbounds nuw i64, ptr %39, i32 1
  store ptr %40, ptr %12, align 8, !tbaa !55
  store i64 0, ptr %39, align 8, !tbaa !39
  br label %41

41:                                               ; preds = %32
  %42 = load i64, ptr %14, align 8, !tbaa !39
  %43 = add nsw i64 %42, 1
  store i64 %43, ptr %14, align 8, !tbaa !39
  br label %27, !llvm.loop !71

44:                                               ; preds = %31
  br label %45

45:                                               ; preds = %44, %5
  call void @llvm.lifetime.end.p0(i64 8, ptr %13) #3
  call void @llvm.lifetime.end.p0(i64 8, ptr %12) #3
  call void @llvm.lifetime.end.p0(i64 8, ptr %11) #3
  ret i32 0
}