; Function Attrs: mustprogress uwtable
define noundef i32 @_ZNK6casadi7Monitor10sp_reverseEPPyS2_PxS1_(ptr noundef nonnull align 8 dereferenceable(96) %0, ptr noundef readonly captures(none) %1, ptr noundef readonly captures(none) %2, ptr readnone captures(none) %3, ptr readnone captures(none) %4) unnamed_addr #3 align 2 {
  %6 = load ptr, ptr %1, align 8, !tbaa !96
  %7 = load ptr, ptr %2, align 8, !tbaa !96
  %8 = load ptr, ptr %0, align 8, !tbaa !3
  %9 = getelementptr inbounds nuw i8, ptr %8, i64 392
  %10 = load ptr, ptr %9, align 8
  %11 = tail call noundef nonnull align 8 dereferenceable(8) ptr %10(ptr noundef nonnull align 8 dereferenceable(64) %0, i64 noundef 0)
  %12 = tail call noundef i64 @_ZNK6casadi8Sparsity3nnzEv(ptr noundef nonnull align 8 dereferenceable(8) %11)
  %.not = icmp ne ptr %6, %7
  %13 = icmp sgt i64 %12, 0
  %or.cond = and i1 %.not, %13
  br i1 %or.cond, label %.lr.ph, label %.loopexit

.lr.ph:                                           ; preds = %5, %.lr.ph
  %.016 = phi i64 [ %19, %.lr.ph ], [ 0, %5 ]
  %.01015 = phi ptr [ %15, %.lr.ph ], [ %6, %5 ]
  %.01114 = phi ptr [ %18, %.lr.ph ], [ %7, %5 ]
  %14 = load i64, ptr %.01114, align 8, !tbaa !98
  %15 = getelementptr inbounds nuw i8, ptr %.01015, i64 8
  %16 = load i64, ptr %.01015, align 8, !tbaa !98
  %17 = or i64 %16, %14
  store i64 %17, ptr %.01015, align 8, !tbaa !98
  %18 = getelementptr inbounds nuw i8, ptr %.01114, i64 8
  store i64 0, ptr %.01114, align 8, !tbaa !98
  %19 = add nuw nsw i64 %.016, 1
  %exitcond.not = icmp eq i64 %19, %12
  br i1 %exitcond.not, label %.loopexit, label %.lr.ph, !llvm.loop !100

.loopexit:                                        ; preds = %.lr.ph, %5
  ret i32 0
}